target datalayout = "e-m:e-p270:32:32-p271:32:32-p272:64:64-i64:64-i128:128-f80:128-n8:16:32:64-S128"
target triple = "x86_64-unknown-linux-gnu"

@.str.2 = private unnamed_addr constant [28 x i8] c"setsockopt SO_KEEPALIVE: %s\00", align 1
@.str.3 = private unnamed_addr constant [29 x i8] c"setsockopt TCP_KEEPIDLE: %s\0A\00", align 1
@.str.4 = private unnamed_addr constant [30 x i8] c"setsockopt TCP_KEEPINTVL: %s\0A\00", align 1
@.str.5 = private unnamed_addr constant [28 x i8] c"setsockopt TCP_KEEPCNT: %s\0A\00", align 1

; Function Attrs: nounwind uwtable
define dso_local i32 @anetKeepAlive(ptr noundef %err, i32 noundef %fd, i32 noundef %interval) #0 {
entry:
  %retval = alloca i32, align 4
  %err.addr = alloca ptr, align 8
  %fd.addr = alloca i32, align 4
  %interval.addr = alloca i32, align 4
  %val = alloca i32, align 4
  store ptr %err, ptr %err.addr, align 8
  store i32 %fd, ptr %fd.addr, align 4
  store i32 %interval, ptr %interval.addr, align 4
  store i32 1, ptr %val, align 4
  %0 = load i32, ptr %fd.addr, align 4
  %call = call i32 @setsockopt(i32 noundef %0, i32 noundef 1, i32 noundef 9, ptr noundef %val, i32 noundef 4) #7
  %cmp = icmp eq i32 %call, -1
  br i1 %cmp, label %if.then, label %if.end

if.then:                                          ; preds = %entry
  %1 = load ptr, ptr %err.addr, align 8
  %call1 = call ptr @__errno_location() #8
  %2 = load i32, ptr %call1, align 4
  %call2 = call ptr @strerror(i32 noundef %2) #7
  call void (ptr, ptr, ...) @anetSetError(ptr noundef %1, ptr noundef @.str.2, ptr noundef %call2)
  store i32 -1, ptr %retval, align 4
  br label %return

if.end:                                           ; preds = %entry
  %3 = load i32, ptr %interval.addr, align 4
  store i32 %3, ptr %val, align 4
  %4 = load i32, ptr %fd.addr, align 4
  %call3 = call i32 @setsockopt(i32 noundef %4, i32 noundef 6, i32 noundef 4, ptr noundef %val, i32 noundef 4) #7
  %cmp4 = icmp slt i32 %call3, 0
  br i1 %cmp4, label %if.then5, label %if.end8

if.then5:                                         ; preds = %if.end
  %5 = load ptr, ptr %err.addr, align 8
  %call6 = call ptr @__errno_location() #8
  %6 = load i32, ptr %call6, align 4
  %call7 = call ptr @strerror(i32 noundef %6) #7
  call void (ptr, ptr, ...) @anetSetError(ptr noundef %5, ptr noundef @.str.3, ptr noundef %call7)
  store i32 -1, ptr %retval, align 4
  br label %return

if.end8:                                          ; preds = %if.end
  %7 = load i32, ptr %interval.addr, align 4
  %div = sdiv i32 %7, 3
  store i32 %div, ptr %val, align 4
  %8 = load i32, ptr %val, align 4
  %cmp9 = icmp eq i32 %8, 0
  br i1 %cmp9, label %if.then10, label %if.end11

if.then10:                                        ; preds = %if.end8
  store i32 1, ptr %val, align 4
  br label %if.end11

if.end11:                                         ; preds = %if.then10, %if.end8
  %9 = load i32, ptr %fd.addr, align 4
  %call12 = call i32 @setsockopt(i32 noundef %9, i32 noundef 6, i32 noundef 5, ptr noundef %val, i32 noundef 4) #7
  %cmp13 = icmp slt i32 %call12, 0
  br i1 %cmp13, label %if.then14, label %if.end17

if.then14:                                        ; preds = %if.end11
  %10 = load ptr, ptr %err.addr, align 8
  %call15 = call ptr @__errno_location() #8
  %11 = load i32, ptr %call15, align 4
  %call16 = call ptr @strerror(i32 noundef %11) #7
  call void (ptr, ptr, ...) @anetSetError(ptr noundef %10, ptr noundef @.str.4, ptr noundef %call16)
  store i32 -1, ptr %retval, align 4
  br label %return

if.end17:                                         ; preds = %if.end11
  store i32 3, ptr %val, align 4
  %12 = load i32, ptr %fd.addr, align 4
  %call18 = call i32 @setsockopt(i32 noundef %12, i32 noundef 6, i32 noundef 6, ptr noundef %val, i32 noundef 4) #7
  %cmp19 = icmp slt i32 %call18, 0
  br i1 %cmp19, label %if.then20, label %if.end23

if.then20:                                        ; preds = %if.end17
  %13 = load ptr, ptr %err.addr, align 8
  %call21 = call ptr @__errno_location() #8
  %14 = load i32, ptr %call21, align 4
  %call22 = call ptr @strerror(i32 noundef %14) #7
  call void (ptr, ptr, ...) @anetSetError(ptr noundef %13, ptr noundef @.str.5, ptr noundef %call22)
  store i32 -1, ptr %retval, align 4
  br label %return

if.end23:                                         ; preds = %if.end17
  store i32 0, ptr %retval, align 4
  br label %return

return:                                           ; preds = %if.end23, %if.then20, %if.then14, %if.then5, %if.then
  %15 = load i32, ptr %retval, align 4
  ret i32 %15
}