; Function Attrs: nounwind uwtable
define dso_local noundef i32 @anetKeepAlive(ptr noundef %err, i32 noundef %fd, i32 noundef %interval) local_unnamed_addr #0 {
entry:
  %val = alloca i32, align 4
  store i32 1, ptr %val, align 4
  %call = call i32 @setsockopt(i32 noundef %fd, i32 noundef 1, i32 noundef 9, ptr noundef nonnull %val, i32 noundef 4) #10
  %cmp = icmp eq i32 %call, -1
  br i1 %cmp, label %return.sink.split, label %if.end

if.end:                                           ; preds = %entry
  store i32 %interval, ptr %val, align 4
  %call3 = call i32 @setsockopt(i32 noundef %fd, i32 noundef 6, i32 noundef 4, ptr noundef nonnull %val, i32 noundef 4) #10
  %cmp4 = icmp slt i32 %call3, 0
  br i1 %cmp4, label %return.sink.split, label %if.end8

if.end8:                                          ; preds = %if.end
  %div = sdiv i32 %interval, 3
  %interval.off = add i32 %interval, 2
  %cmp9 = icmp ult i32 %interval.off, 5
  %spec.store.select = select i1 %cmp9, i32 1, i32 %div
  store i32 %spec.store.select, ptr %val, align 4
  %call12 = call i32 @setsockopt(i32 noundef %fd, i32 noundef 6, i32 noundef 5, ptr noundef nonnull %val, i32 noundef 4) #10
  %cmp13 = icmp slt i32 %call12, 0
  br i1 %cmp13, label %return.sink.split, label %if.end17

if.end17:                                         ; preds = %if.end8
  store i32 3, ptr %val, align 4
  %call18 = call i32 @setsockopt(i32 noundef %fd, i32 noundef 6, i32 noundef 6, ptr noundef nonnull %val, i32 noundef 4) #10
  %cmp19 = icmp slt i32 %call18, 0
  br i1 %cmp19, label %return.sink.split, label %return

return.sink.split:                                ; preds = %if.end17, %if.end8, %if.end, %entry
  %.str.5.sink = phi ptr [ @.str.2, %entry ], [ @.str.3, %if.end ], [ @.str.4, %if.end8 ], [ @.str.5, %if.end17 ]
  %call21 = tail call ptr @__errno_location() #11
  %0 = load i32, ptr %call21, align 4
  %call22 = call ptr @strerror(i32 noundef %0) #10
  call void (ptr, ptr, ...) @anetSetError(ptr noundef %err, ptr noundef nonnull %.str.5.sink, ptr noundef %call22)
  br label %return

return:                                           ; preds = %return.sink.split, %if.end17
  %retval.0 = phi i32 [ 0, %if.end17 ], [ -1, %return.sink.split ]
  ret i32 %retval.0
}